; Function Attrs: mustprogress uwtable
define dso_local noundef range(i32 -1, 1) i32 @_ZN24btInverseDynamicsBullet313MultiBodyTree38calculatePositionAndVelocityKinematicsERKNS_4vecxES3_(ptr noundef nonnull readonly align 8 captures(none) dereferenceable(24) %0, ptr noundef nonnull align 8 dereferenceable(32) %1, ptr noundef nonnull align 8 dereferenceable(32) %2) local_unnamed_addr #0 align 2 {
  %4 = load i8, ptr %0, align 8, !tbaa !4, !range !21, !noundef !22
  %5 = icmp eq i8 %4, 0
  br i1 %5, label %.sink.split, label %6

6:                                                ; preds = %3
  %7 = getelementptr inbounds nuw i8, ptr %0, i64 8
  %8 = load ptr, ptr %7, align 8, !tbaa !15
  %9 = tail call noundef i32 @_ZN24btInverseDynamicsBullet313MultiBodyTree13MultiBodyImpl19calculateKinematicsERKNS_4vecxES4_S4_NS1_13KinUpdateTypeE(ptr noundef nonnull align 8 dereferenceable(400) %8, ptr noundef nonnull align 8 dereferenceable(32) %1, ptr noundef nonnull align 8 dereferenceable(32) %2, ptr noundef nonnull align 8 dereferenceable(32) %2, i32 noundef 1)
  %10 = icmp eq i32 %9, -1
  br i1 %10, label %.sink.split, label %11

.sink.split:                                      ; preds = %6, %3
  %.sink = phi i32 [ 180, %3 ], [ 186, %6 ]
  %.str.5.sink = phi ptr [ @.str.2, %3 ], [ @.str.5, %6 ]
  tail call void (ptr, ...) @b3OutputErrorMessageVarArgsInternal(ptr noundef nonnull @.str, ptr noundef nonnull @.str.1, i32 noundef %.sink)
  tail call void (ptr, ...) @b3OutputErrorMessageVarArgsInternal(ptr noundef nonnull %.str.5.sink)
  br label %11

11:                                               ; preds = %.sink.split, %6
  %.0 = phi i32 [ 0, %6 ], [ -1, %.sink.split ]
  ret i32 %.0
}